; Function Attrs: mustprogress uwtable
define noundef zeroext i1 @_ZN6google8protobuf2io16CodedInputStream18ReadStringFallbackEPNSt7__cxx1112basic_stringIcSt11char_traitsIcESaIcEEEi(ptr noundef nonnull align 8 captures(none) dereferenceable(80) %0, ptr noundef %1, i32 noundef %2) local_unnamed_addr #4 align 2 personality ptr @__gxx_personality_v0 {
  %4 = getelementptr inbounds nuw i8, ptr %1, i64 8
  %5 = load i64, ptr %4, align 8, !tbaa !40
  %6 = icmp eq i64 %5, 0
  br i1 %6, label %9, label %7

7:                                                ; preds = %3
  store i64 0, ptr %4, align 8, !tbaa !40
  %8 = load ptr, ptr %1, align 8, !tbaa !36
  store i8 0, ptr %8, align 1, !tbaa !27
  br label %9

9:                                                ; preds = %7, %3
  %10 = getelementptr inbounds nuw i8, ptr %0, i64 40
  %11 = getelementptr inbounds nuw i8, ptr %0, i64 48
  %12 = load i32, ptr %11, align 8, !tbaa !23
  %13 = load i32, ptr %10, align 8, !tbaa !23
  %14 = tail call i32 @llvm.smin.i32(i32 %12, i32 %13)
  %.not = icmp eq i32 %14, 2147483647
  br i1 %.not, label %30, label %15

15:                                               ; preds = %9
  %16 = getelementptr inbounds nuw i8, ptr %0, i64 24
  %17 = load i32, ptr %16, align 8, !tbaa !20
  %18 = getelementptr inbounds nuw i8, ptr %0, i64 8
  %19 = load ptr, ptr %18, align 8, !tbaa !14
  %20 = load ptr, ptr %0, align 8, !tbaa !15
  %21 = ptrtoint ptr %19 to i64
  %22 = ptrtoint ptr %20 to i64
  %.neg3.i.neg = sub i64 %21, %22
  %.neg4.i.neg = trunc i64 %.neg3.i.neg to i32
  %23 = getelementptr inbounds nuw i8, ptr %0, i64 44
  %24 = load i32, ptr %23, align 4, !tbaa !16
  %.neg2.i.neg = sub i32 %14, %17
  %.neg = add i32 %.neg2.i.neg, %24
  %25 = add i32 %.neg, %.neg4.i.neg
  %26 = icmp slt i32 %25, 1
  %27 = icmp slt i32 %2, 1
  %or.cond.not36 = or i1 %27, %26
  %.not29 = icmp sgt i32 %2, %25
  %or.cond31 = or i1 %.not29, %or.cond.not36
  br i1 %or.cond31, label %30, label %28

28:                                               ; preds = %15
  %29 = zext nneg i32 %2 to i64
  tail call void @_ZNSt7__cxx1112basic_stringIcSt11char_traitsIcESaIcEE7reserveEm(ptr noundef nonnull align 8 dereferenceable(32) %1, i64 noundef %29)
  br label %30

30:                                               ; preds = %15, %28, %9
  %31 = getelementptr inbounds nuw i8, ptr %0, i64 8
  br label %32

32:                                               ; preds = %.split, %30
  %.022 = phi i32 [ %2, %30 ], [ %49, %.split ]
  %33 = load ptr, ptr %31, align 8, !tbaa !14
  %34 = load ptr, ptr %0, align 8, !tbaa !15
  %35 = ptrtoint ptr %33 to i64
  %36 = ptrtoint ptr %34 to i64
  %37 = sub i64 %35, %36
  %38 = trunc i64 %37 to i32
  %.not45.not.not.not.not = icmp sle i32 %.022, %38
  br i1 %.not45.not.not.not.not, label %51, label %39

39:                                               ; preds = %32
  %.not30 = icmp eq i32 %38, 0
  br i1 %.not30, label %.split, label %.split24

.split24:                                         ; preds = %39
  %sext = shl i64 %37, 32
  %40 = ashr exact i64 %sext, 32
  %41 = load i64, ptr %4, align 8, !tbaa !40
  %42 = sub i64 4611686018427387903, %41
  %43 = icmp ult i64 %42, %40
  br i1 %43, label %44, label %_ZNSt7__cxx1112basic_stringIcSt11char_traitsIcESaIcEE6appendEPKcm.exit

44:                                               ; preds = %.split24
  tail call void @_ZSt20__throw_length_errorPKc(ptr noundef nonnull @.str.22) #18
  unreachable

_ZNSt7__cxx1112basic_stringIcSt11char_traitsIcESaIcEE6appendEPKcm.exit: ; preds = %.split24
  %45 = tail call noundef nonnull align 8 dereferenceable(32) ptr @_ZNSt7__cxx1112basic_stringIcSt11char_traitsIcESaIcEE9_M_appendEPKcm(ptr noundef nonnull align 8 dereferenceable(32) %1, ptr noundef %34, i64 noundef %40)
  %46 = sub nsw i32 %.022, %38
  %47 = load ptr, ptr %0, align 8, !tbaa !15
  %48 = getelementptr inbounds i8, ptr %47, i64 %40
  store ptr %48, ptr %0, align 8, !tbaa !15
  br label %.split

.split:                                           ; preds = %39, %_ZNSt7__cxx1112basic_stringIcSt11char_traitsIcESaIcEE6appendEPKcm.exit
  %49 = phi i32 [ %46, %_ZNSt7__cxx1112basic_stringIcSt11char_traitsIcESaIcEE6appendEPKcm.exit ], [ %.022, %39 ]
  %50 = tail call noundef zeroext i1 @_ZN6google8protobuf2io16CodedInputStream7RefreshEv(ptr noundef nonnull align 8 dereferenceable(80) %0)
  br i1 %50, label %32, label %.loopexit, !llvm.loop !41

51:                                               ; preds = %32
  %52 = sext i32 %.022 to i64
  %53 = load i64, ptr %4, align 8, !tbaa !40
  %54 = sub i64 4611686018427387903, %53
  %55 = icmp ult i64 %54, %52
  br i1 %55, label %56, label %_ZNSt7__cxx1112basic_stringIcSt11char_traitsIcESaIcEE6appendEPKcm.exit32

56:                                               ; preds = %51
  tail call void @_ZSt20__throw_length_errorPKc(ptr noundef nonnull @.str.22) #18
  unreachable

_ZNSt7__cxx1112basic_stringIcSt11char_traitsIcESaIcEE6appendEPKcm.exit32: ; preds = %51
  %57 = tail call noundef nonnull align 8 dereferenceable(32) ptr @_ZNSt7__cxx1112basic_stringIcSt11char_traitsIcESaIcEE9_M_appendEPKcm(ptr noundef nonnull align 8 dereferenceable(32) %1, ptr noundef %34, i64 noundef %52)
  %58 = load ptr, ptr %0, align 8, !tbaa !15
  %59 = getelementptr inbounds i8, ptr %58, i64 %52
  store ptr %59, ptr %0, align 8, !tbaa !15
  br label %.loopexit

.loopexit:                                        ; preds = %.split, %_ZNSt7__cxx1112basic_stringIcSt11char_traitsIcESaIcEE6appendEPKcm.exit32
  ret i1 %.not45.not.not.not.not
}